; Function Attrs: null_pointer_is_valid sspstrong uwtable
define internal i32 @dissect_do_irp_tcp_full_message(ptr noundef %0, ptr noundef %1, ptr noundef %2, ptr readnone captures(none) %3) #0 {
  %5 = alloca i32, align 4
  %6 = alloca i8, align 1
  %7 = load i32, ptr @proto_do_irp, align 4
  %8 = tail call ptr @proto_tree_add_item(ptr noundef %2, i32 noundef %7, ptr noundef %0, i32 noundef 0, i32 noundef -1, i32 noundef 0)
  %9 = load i32, ptr @ett_do_irp, align 4
  %10 = tail call ptr @proto_item_add_subtree(ptr noundef %8, i32 noundef %9)
  call void @llvm.lifetime.start.p0(i64 4, ptr nonnull %5) #6
  call void @llvm.lifetime.start.p0(i64 1, ptr nonnull %6) #6
  call fastcc void @decode_envelope(ptr noundef %0, ptr noundef %1, ptr noundef %10, ptr noundef nonnull %5, ptr noundef nonnull %6)
  %11 = tail call ptr @tvb_new_subset_remaining(ptr noundef %0, i32 noundef 20)
  %12 = load i32, ptr %5, align 4
  %13 = tail call fastcc i32 @decode_header_body_credential(ptr noundef %11, ptr noundef %1, ptr noundef %10, i32 noundef %12)
  %14 = add i32 %13, 20
  call void @llvm.lifetime.end.p0(i64 1, ptr nonnull %6) #6
  call void @llvm.lifetime.end.p0(i64 4, ptr nonnull %5) #6
  ret i32 %14
}